; Function Attrs: mustprogress uwtable
define internal void @_ZN4absl12_GLOBAL__N_160FixedArrayExceptionSafety_SizeValueConstructorWithAlloc_Test8TestBodyEv(ptr nocapture nonnull readnone align 8 %this) unnamed_addr #3 align 2 personality ptr @__gxx_personality_v0 {
entry:
  %ref.tmp = alloca %"class.testing::ThrowingValue", align 4
  %ref.tmp2 = alloca %"class.testing::ThrowingValue", align 4
  call void @_ZN7testing13ThrowingValueILNS_8TypeSpecE0EEC2Ev(ptr noundef nonnull align 4 dereferenceable(4) %ref.tmp)
  invoke void @_ZN7testing16TestThrowingCtorIN4absl10FixedArrayINS_13ThrowingValueILNS_8TypeSpecE0EEELm25ENS_17ThrowingAllocatorIS5_LNS_9AllocSpecE0EEEEEJRKmS5_EEEvDpOT0_(ptr noundef nonnull align 8 dereferenceable(8) @_ZN4absl12_GLOBAL__N_110kSmallSizeE, ptr noundef nonnull align 4 dereferenceable(4) %ref.tmp)
          to label %invoke.cont unwind label %lpad

invoke.cont:                                      ; preds = %entry
  invoke void @_ZN7testing19exceptions_internal18ConstructorTracker16ObjectDestructedEPv(ptr noundef nonnull %ref.tmp)
          to label %_ZN7testing13ThrowingValueILNS_8TypeSpecE0EED2Ev.exit unwind label %terminate.lpad.i.i

terminate.lpad.i.i:                               ; preds = %invoke.cont
  %0 = landingpad { ptr, i32 }
          catch ptr null
  %1 = extractvalue { ptr, i32 } %0, 0
  call void @__clang_call_terminate(ptr %1) #21
  unreachable

_ZN7testing13ThrowingValueILNS_8TypeSpecE0EED2Ev.exit: ; preds = %invoke.cont
  call void @_ZN7testing13ThrowingValueILNS_8TypeSpecE0EEC2Ev(ptr noundef nonnull align 4 dereferenceable(4) %ref.tmp2)
  invoke void @_ZN7testing16TestThrowingCtorIN4absl10FixedArrayINS_13ThrowingValueILNS_8TypeSpecE0EEELm25ENS_17ThrowingAllocatorIS5_LNS_9AllocSpecE0EEEEEJRKmS5_EEEvDpOT0_(ptr noundef nonnull align 8 dereferenceable(8) @_ZN4absl12_GLOBAL__N_110kLargeSizeE, ptr noundef nonnull align 4 dereferenceable(4) %ref.tmp2)
          to label %invoke.cont4 unwind label %lpad3

invoke.cont4:                                     ; preds = %_ZN7testing13ThrowingValueILNS_8TypeSpecE0EED2Ev.exit
  invoke void @_ZN7testing19exceptions_internal18ConstructorTracker16ObjectDestructedEPv(ptr noundef nonnull %ref.tmp2)
          to label %_ZN7testing13ThrowingValueILNS_8TypeSpecE0EED2Ev.exit3 unwind label %terminate.lpad.i.i2

terminate.lpad.i.i2:                              ; preds = %invoke.cont4
  %2 = landingpad { ptr, i32 }
          catch ptr null
  %3 = extractvalue { ptr, i32 } %2, 0
  call void @__clang_call_terminate(ptr %3) #21
  unreachable

_ZN7testing13ThrowingValueILNS_8TypeSpecE0EED2Ev.exit3: ; preds = %invoke.cont4
  ret void

lpad:                                             ; preds = %entry
  %4 = landingpad { ptr, i32 }
          cleanup
  invoke void @_ZN7testing19exceptions_internal18ConstructorTracker16ObjectDestructedEPv(ptr noundef nonnull %ref.tmp)
          to label %eh.resume unwind label %terminate.lpad.i.i4

terminate.lpad.i.i4:                              ; preds = %lpad
  %5 = landingpad { ptr, i32 }
          catch ptr null
  %6 = extractvalue { ptr, i32 } %5, 0
  call void @__clang_call_terminate(ptr %6) #21
  unreachable

lpad3:                                            ; preds = %_ZN7testing13ThrowingValueILNS_8TypeSpecE0EED2Ev.exit
  %7 = landingpad { ptr, i32 }
          cleanup
  invoke void @_ZN7testing19exceptions_internal18ConstructorTracker16ObjectDestructedEPv(ptr noundef nonnull %ref.tmp2)
          to label %eh.resume unwind label %terminate.lpad.i.i6

terminate.lpad.i.i6:                              ; preds = %lpad3
  %8 = landingpad { ptr, i32 }
          catch ptr null
  %9 = extractvalue { ptr, i32 } %8, 0
  call void @__clang_call_terminate(ptr %9) #21
  unreachable

eh.resume:                                        ; preds = %lpad3, %lpad
  %.pn = phi { ptr, i32 } [ %4, %lpad ], [ %7, %lpad3 ]
  resume { ptr, i32 } %.pn
}